; Function Attrs: mustprogress nounwind uwtable
define dso_local noundef ptr @_ZN4llvm9AAMDNodes9shiftTBAAEPNS_6MDNodeEm(ptr noundef returned %0, i64 noundef %1) local_unnamed_addr #0 align 2 {
  %3 = icmp eq i64 %1, 0
  br i1 %3, label %_ZL16isStructPathTBAAPKN4llvm6MDNodeE.exit, label %4

4:                                                ; preds = %2
  %5 = getelementptr inbounds i8, ptr %0, i64 -16
  %6 = load i64, ptr %5, align 8
  %7 = and i64 %6, 2
  %.not.i.i.i = icmp eq i64 %7, 0
  br i1 %.not.i.i.i, label %12, label %8

8:                                                ; preds = %4
  %9 = getelementptr inbounds i8, ptr %0, i64 -32
  %10 = load ptr, ptr %9, align 8
  %11 = tail call noundef i64 @_ZNK4llvm15SmallVectorBaseIjE4sizeEv(ptr noundef nonnull align 8 dereferenceable(16) %9) #20
  br label %_ZNK4llvm6MDNode10getOperandEj.exit.i

12:                                               ; preds = %4
  %13 = lshr i64 %6, 2
  %14 = and i64 %13, 15
  %15 = sub nsw i64 0, %14
  %16 = getelementptr inbounds %"class.llvm::MDOperand", ptr %5, i64 %15
  br label %_ZNK4llvm6MDNode10getOperandEj.exit.i

_ZNK4llvm6MDNode10getOperandEj.exit.i:            ; preds = %12, %8
  %.sroa.0.0.i.i.i = phi ptr [ %16, %12 ], [ %10, %8 ]
  %17 = load ptr, ptr %.sroa.0.0.i.i.i, align 8
  %18 = load i8, ptr %17, align 4
  %.off.i = add i8 %18, -5
  %switch.i = icmp ult i8 %.off.i, 31
  br i1 %switch.i, label %19, label %_ZL16isStructPathTBAAPKN4llvm6MDNodeE.exit

19:                                               ; preds = %_ZNK4llvm6MDNode10getOperandEj.exit.i
  %20 = load i64, ptr %5, align 8
  %21 = and i64 %20, 2
  %.not.i.i2.i = icmp eq i64 %21, 0
  br i1 %.not.i.i2.i, label %_ZL16isStructPathTBAAPKN4llvm6MDNodeE.exit, label %22

22:                                               ; preds = %19
  %23 = getelementptr inbounds i8, ptr %0, i64 -32
  %24 = tail call noundef i64 @_ZNK4llvm15SmallVectorBaseIjE4sizeEv(ptr noundef nonnull align 8 dereferenceable(16) %23) #20
  br label %_ZL16isStructPathTBAAPKN4llvm6MDNodeE.exit

_ZL16isStructPathTBAAPKN4llvm6MDNodeE.exit:       ; preds = %22, %19, %_ZNK4llvm6MDNode10getOperandEj.exit.i, %2
  ret ptr %0
}